; Function Attrs: mustprogress uwtable
define void @zrule_getName_77(ptr noundef %0, ptr noundef %1, i32 noundef %2) local_unnamed_addr #1 personality ptr @__gxx_personality_v0 {
  %4 = alloca %"class.icu_77::UnicodeString", align 8
  %5 = alloca %"class.icu_77::ConstChar16Ptr", align 8
  call void @llvm.lifetime.start.p0(i64 64, ptr nonnull %4) #7
  %6 = icmp eq i32 %2, -1
  %7 = zext i1 %6 to i8
  store ptr %1, ptr %5, align 8, !tbaa !6
  invoke void @_ZN6icu_7713UnicodeStringC1EaNS_14ConstChar16PtrEi(ptr noundef nonnull align 8 dereferenceable(64) %4, i8 noundef signext %7, ptr noundef nonnull %5, i32 noundef %2)
          to label %8 unwind label %31

8:                                                ; preds = %3
  %9 = load ptr, ptr %5, align 8, !tbaa !6
  call void asm sideeffect "", "rm,~{memory},~{dirflag},~{fpsr},~{flags}"(ptr %9) #7, !srcloc !11
  %10 = invoke noundef nonnull align 8 dereferenceable(64) ptr @_ZNK6icu_7712TimeZoneRule7getNameERNS_13UnicodeStringE(ptr noundef nonnull align 8 dereferenceable(80) %0, ptr noundef nonnull align 8 dereferenceable(64) %4)
          to label %11 unwind label %34

11:                                               ; preds = %8
  %12 = invoke noundef nonnull align 8 dereferenceable(64) ptr @_ZN6icu_7713UnicodeStringaSERKS0_(ptr noundef nonnull align 8 dereferenceable(64) %4, ptr noundef nonnull align 8 dereferenceable(64) %10)
          to label %13 unwind label %34

13:                                               ; preds = %11
  %14 = getelementptr inbounds nuw i8, ptr %4, i64 8
  %15 = load i16, ptr %14, align 8, !tbaa !12
  %16 = getelementptr inbounds nuw i8, ptr %4, i64 12
  %17 = load i32, ptr %16, align 4
  %18 = and i16 %15, 17
  %.not.i = icmp eq i16 %18, 0
  br i1 %.not.i, label %19, label %_ZNK6icu_7713UnicodeString9getBufferEv.exit

19:                                               ; preds = %13
  %20 = and i16 %15, 2
  %.not2.i = icmp eq i16 %20, 0
  br i1 %.not2.i, label %23, label %21

21:                                               ; preds = %19
  %22 = getelementptr inbounds nuw i8, ptr %4, i64 10
  br label %_ZNK6icu_7713UnicodeString9getBufferEv.exit

23:                                               ; preds = %19
  %24 = getelementptr inbounds nuw i8, ptr %4, i64 24
  %25 = load ptr, ptr %24, align 8, !tbaa !12
  br label %_ZNK6icu_7713UnicodeString9getBufferEv.exit

_ZNK6icu_7713UnicodeString9getBufferEv.exit:      ; preds = %13, %21, %23
  %.0.i = phi ptr [ %22, %21 ], [ %25, %23 ], [ null, %13 ]
  %26 = icmp slt i16 %15, 0
  %27 = ashr i16 %15, 5
  %28 = sext i16 %27 to i32
  %29 = select i1 %26, i32 %17, i32 %28
  %30 = sext i32 %29 to i64
  call void @llvm.memcpy.p0.p0.i64(ptr align 2 %1, ptr align 2 %.0.i, i64 %30, i1 false)
  call void @_ZN6icu_7713UnicodeStringD1Ev(ptr noundef nonnull align 8 dereferenceable(64) %4) #7
  call void @llvm.lifetime.end.p0(i64 64, ptr nonnull %4) #7
  ret void

31:                                               ; preds = %3
  %32 = landingpad { ptr, i32 }
          cleanup
  %33 = load ptr, ptr %5, align 8, !tbaa !6
  call void asm sideeffect "", "rm,~{memory},~{dirflag},~{fpsr},~{flags}"(ptr %33) #7, !srcloc !11
  br label %36

34:                                               ; preds = %11, %8
  %35 = landingpad { ptr, i32 }
          cleanup
  call void @_ZN6icu_7713UnicodeStringD1Ev(ptr noundef nonnull align 8 dereferenceable(64) %4) #7
  br label %36

36:                                               ; preds = %34, %31
  %.pn = phi { ptr, i32 } [ %35, %34 ], [ %32, %31 ]
  call void @llvm.lifetime.end.p0(i64 64, ptr nonnull %4) #7
  resume { ptr, i32 } %.pn
}